target datalayout = "e-m:e-p270:32:32-p271:32:32-p272:64:64-i64:64-i128:128-f80:128-n8:16:32:64-S128"
target triple = "x86_64-pc-linux-gnu"

%struct.jpeg_compress_struct = type { ptr, ptr, ptr, ptr, i32, i32, ptr, i32, i32, i32, i32, double, i32, i32, i32, ptr, [4 x ptr], [4 x ptr], [4 x ptr], [16 x i8], [16 x i8], [16 x i8], i32, ptr, i32, i32, i32, i32, i32, i32, i32, i32, i32, i8, i8, i8, i16, i16, i32, i32, i32, i32, i32, i32, i32, [4 x ptr], i32, i32, i32, [10 x i32], i32, i32, i32, i32, ptr, ptr, ptr, ptr, ptr, ptr, ptr, ptr, ptr, ptr, i32 }
%struct.jpeg_component_info = type { i32, i32, i32, i32, i32, i32, i32, i32, i32, i32, i32, i32, i32, i32, i32, i32, i32, i32, i32, ptr, ptr }

@simd_support = internal thread_local global i32 -1, align 4

; Function Attrs: nounwind uwtable
define void @jsimd_h2v1_downsample(ptr noundef %0, ptr noundef %1, ptr noundef %2, ptr noundef %3) #0 {
  %5 = alloca ptr, align 8
  %6 = alloca ptr, align 8
  %7 = alloca ptr, align 8
  %8 = alloca ptr, align 8
  store ptr %0, ptr %5, align 8, !tbaa !7
  store ptr %1, ptr %6, align 8, !tbaa !31
  store ptr %2, ptr %7, align 8, !tbaa !10
  store ptr %3, ptr %8, align 8, !tbaa !10
  %9 = call align 4 ptr @llvm.threadlocal.address.p0(ptr align 4 @simd_support)
  %10 = load i32, ptr %9, align 4, !tbaa !3
  %11 = icmp eq i32 %10, -1
  br i1 %11, label %12, label %13

12:                                               ; preds = %4
  call void @init_simd()
  br label %13

13:                                               ; preds = %12, %4
  %14 = call align 4 ptr @llvm.threadlocal.address.p0(ptr align 4 @simd_support)
  %15 = load i32, ptr %14, align 4, !tbaa !3
  %16 = and i32 %15, 128
  %17 = icmp ne i32 %16, 0
  br i1 %17, label %18, label %33

18:                                               ; preds = %13
  %19 = load ptr, ptr %5, align 8, !tbaa !7
  %20 = getelementptr inbounds nuw %struct.jpeg_compress_struct, ptr %19, i32 0, i32 7
  %21 = load i32, ptr %20, align 8, !tbaa !32
  %22 = load ptr, ptr %5, align 8, !tbaa !7
  %23 = getelementptr inbounds nuw %struct.jpeg_compress_struct, ptr %22, i32 0, i32 42
  %24 = load i32, ptr %23, align 4, !tbaa !53
  %25 = load ptr, ptr %6, align 8, !tbaa !31
  %26 = getelementptr inbounds nuw %struct.jpeg_component_info, ptr %25, i32 0, i32 3
  %27 = load i32, ptr %26, align 4, !tbaa !54
  %28 = load ptr, ptr %6, align 8, !tbaa !31
  %29 = getelementptr inbounds nuw %struct.jpeg_component_info, ptr %28, i32 0, i32 7
  %30 = load i32, ptr %29, align 4, !tbaa !56
  %31 = load ptr, ptr %7, align 8, !tbaa !10
  %32 = load ptr, ptr %8, align 8, !tbaa !10
  call void @jsimd_h2v1_downsample_avx2(i32 noundef %21, i32 noundef %24, i32 noundef %27, i32 noundef %30, ptr noundef %31, ptr noundef %32)
  br label %48

33:                                               ; preds = %13
  %34 = load ptr, ptr %5, align 8, !tbaa !7
  %35 = getelementptr inbounds nuw %struct.jpeg_compress_struct, ptr %34, i32 0, i32 7
  %36 = load i32, ptr %35, align 8, !tbaa !32
  %37 = load ptr, ptr %5, align 8, !tbaa !7
  %38 = getelementptr inbounds nuw %struct.jpeg_compress_struct, ptr %37, i32 0, i32 42
  %39 = load i32, ptr %38, align 4, !tbaa !53
  %40 = load ptr, ptr %6, align 8, !tbaa !31
  %41 = getelementptr inbounds nuw %struct.jpeg_component_info, ptr %40, i32 0, i32 3
  %42 = load i32, ptr %41, align 4, !tbaa !54
  %43 = load ptr, ptr %6, align 8, !tbaa !31
  %44 = getelementptr inbounds nuw %struct.jpeg_component_info, ptr %43, i32 0, i32 7
  %45 = load i32, ptr %44, align 4, !tbaa !56
  %46 = load ptr, ptr %7, align 8, !tbaa !10
  %47 = load ptr, ptr %8, align 8, !tbaa !10
  call void @jsimd_h2v1_downsample_sse2(i32 noundef %36, i32 noundef %39, i32 noundef %42, i32 noundef %45, ptr noundef %46, ptr noundef %47)
  br label %48

48:                                               ; preds = %33, %18
  ret void
}